; Function Attrs: mustprogress nounwind uwtable
define dso_local void @_ZNK4llvm26CheckChild2CondCodeMatcher9printImplERNS_11raw_ostreamEj(ptr nocapture noundef nonnull readonly align 8 dereferenceable(48) %0, ptr noundef nonnull align 8 dereferenceable(48) %1, i32 noundef %2) unnamed_addr #1 align 2 {
  %4 = tail call noundef nonnull align 8 dereferenceable(48) ptr @_ZN4llvm11raw_ostream6indentEj(ptr noundef nonnull align 8 dereferenceable(48) %1, i32 noundef %2) #13
  %5 = getelementptr inbounds nuw i8, ptr %4, i64 24
  %6 = load ptr, ptr %5, align 8
  %7 = getelementptr inbounds nuw i8, ptr %4, i64 32
  %8 = load ptr, ptr %7, align 8
  %9 = ptrtoint ptr %6 to i64
  %10 = ptrtoint ptr %8 to i64
  %11 = sub i64 %9, %10
  %12 = icmp ult i64 %11, 25
  br i1 %12, label %13, label %15

13:                                               ; preds = %3
  %14 = tail call noundef nonnull align 8 dereferenceable(48) ptr @_ZN4llvm11raw_ostream5writeEPKcm(ptr noundef nonnull align 8 dereferenceable(48) %4, ptr noundef nonnull @.str.27, i64 noundef 25) #13
  %.phi.trans.insert = getelementptr inbounds nuw i8, ptr %14, i64 32
  %.pre = load ptr, ptr %.phi.trans.insert, align 8
  br label %_ZN4llvm11raw_ostreamlsEPKc.exit

15:                                               ; preds = %3
  tail call void @llvm.memcpy.p0.p0.i64(ptr noundef nonnull align 1 dereferenceable(25) %8, ptr noundef nonnull align 1 dereferenceable(25) @.str.27, i64 25, i1 false)
  %16 = load ptr, ptr %7, align 8
  %17 = getelementptr inbounds i8, ptr %16, i64 25
  store ptr %17, ptr %7, align 8
  br label %_ZN4llvm11raw_ostreamlsEPKc.exit

_ZN4llvm11raw_ostreamlsEPKc.exit:                 ; preds = %13, %15
  %18 = phi ptr [ %.pre, %13 ], [ %17, %15 ]
  %.0.i.i = phi ptr [ %14, %13 ], [ %4, %15 ]
  %19 = getelementptr inbounds nuw i8, ptr %0, i64 32
  %.sroa.0.0.copyload = load ptr, ptr %19, align 8
  %.sroa.2.0..sroa_idx = getelementptr inbounds i8, ptr %0, i64 40
  %.sroa.2.0.copyload = load i64, ptr %.sroa.2.0..sroa_idx, align 8
  %20 = getelementptr inbounds nuw i8, ptr %.0.i.i, i64 24
  %21 = load ptr, ptr %20, align 8
  %22 = getelementptr inbounds nuw i8, ptr %.0.i.i, i64 32
  %23 = ptrtoint ptr %21 to i64
  %24 = ptrtoint ptr %18 to i64
  %25 = sub i64 %23, %24
  %26 = icmp ugt i64 %.sroa.2.0.copyload, %25
  br i1 %26, label %27, label %29

27:                                               ; preds = %_ZN4llvm11raw_ostreamlsEPKc.exit
  %28 = tail call noundef nonnull align 8 dereferenceable(48) ptr @_ZN4llvm11raw_ostream5writeEPKcm(ptr noundef nonnull align 8 dereferenceable(48) %.0.i.i, ptr noundef %.sroa.0.0.copyload, i64 noundef %.sroa.2.0.copyload) #13
  %.phi.trans.insert4 = getelementptr inbounds nuw i8, ptr %28, i64 32
  %.pre5 = load ptr, ptr %.phi.trans.insert4, align 8
  br label %_ZN4llvm11raw_ostreamlsENS_9StringRefE.exit

29:                                               ; preds = %_ZN4llvm11raw_ostreamlsEPKc.exit
  %.not.i = icmp eq i64 %.sroa.2.0.copyload, 0
  br i1 %.not.i, label %_ZN4llvm11raw_ostreamlsENS_9StringRefE.exit, label %30

30:                                               ; preds = %29
  tail call void @llvm.memcpy.p0.p0.i64(ptr align 1 %18, ptr align 1 %.sroa.0.0.copyload, i64 %.sroa.2.0.copyload, i1 false)
  %31 = load ptr, ptr %22, align 8
  %32 = getelementptr inbounds i8, ptr %31, i64 %.sroa.2.0.copyload
  store ptr %32, ptr %22, align 8
  br label %_ZN4llvm11raw_ostreamlsENS_9StringRefE.exit

_ZN4llvm11raw_ostreamlsENS_9StringRefE.exit:      ; preds = %27, %29, %30
  %33 = phi ptr [ %.pre5, %27 ], [ %32, %30 ], [ %18, %29 ]
  %.0.i = phi ptr [ %28, %27 ], [ %.0.i.i, %30 ], [ %.0.i.i, %29 ]
  %34 = getelementptr inbounds nuw i8, ptr %.0.i, i64 24
  %35 = load ptr, ptr %34, align 8
  %.not.i2 = icmp ult ptr %33, %35
  br i1 %.not.i2, label %38, label %36

36:                                               ; preds = %_ZN4llvm11raw_ostreamlsENS_9StringRefE.exit
  %37 = tail call noundef nonnull align 8 dereferenceable(48) ptr @_ZN4llvm11raw_ostream5writeEh(ptr noundef nonnull align 8 dereferenceable(48) %.0.i, i8 noundef zeroext 10) #13
  br label %_ZN4llvm11raw_ostreamlsEc.exit

38:                                               ; preds = %_ZN4llvm11raw_ostreamlsENS_9StringRefE.exit
  %39 = getelementptr inbounds nuw i8, ptr %.0.i, i64 32
  %40 = getelementptr inbounds i8, ptr %33, i64 1
  store ptr %40, ptr %39, align 8
  store i8 10, ptr %33, align 1
  br label %_ZN4llvm11raw_ostreamlsEc.exit

_ZN4llvm11raw_ostreamlsEc.exit:                   ; preds = %36, %38
  ret void
}